target datalayout = "e-m:e-p270:32:32-p271:32:32-p272:64:64-i64:64-i128:128-f80:128-n8:16:32:64-S128"
target triple = "x86_64-pc-linux-gnu"

%struct.Vec_Int_t_ = type { i32, i32, ptr }
%struct.Unr_Man_t_ = type { ptr, ptr, i32, ptr, ptr, ptr, ptr, ptr, ptr, ptr, ptr, ptr, ptr }

; Function Attrs: nounwind uwtable
define internal void @Vec_IntFreeP(ptr noundef %0) #0 {
  %2 = alloca ptr, align 8
  store ptr %0, ptr %2, align 8
  %3 = load ptr, ptr %2, align 8
  %4 = load ptr, ptr %3, align 8
  %5 = icmp eq ptr %4, null
  br i1 %5, label %6, label %7

6:                                                ; preds = %1
  br label %32

7:                                                ; preds = %1
  %8 = load ptr, ptr %2, align 8
  %9 = load ptr, ptr %8, align 8
  %10 = getelementptr inbounds %struct.Vec_Int_t_, ptr %9, i32 0, i32 2
  %11 = load ptr, ptr %10, align 8
  %12 = icmp ne ptr %11, null
  br i1 %12, label %13, label %21

13:                                               ; preds = %7
  %14 = load ptr, ptr %2, align 8
  %15 = load ptr, ptr %14, align 8
  %16 = getelementptr inbounds %struct.Vec_Int_t_, ptr %15, i32 0, i32 2
  %17 = load ptr, ptr %16, align 8
  call void @free(ptr noundef %17) #10
  %18 = load ptr, ptr %2, align 8
  %19 = load ptr, ptr %18, align 8
  %20 = getelementptr inbounds %struct.Vec_Int_t_, ptr %19, i32 0, i32 2
  store ptr null, ptr %20, align 8
  br label %22

21:                                               ; preds = %7
  br label %22

22:                                               ; preds = %21, %13
  %23 = load ptr, ptr %2, align 8
  %24 = load ptr, ptr %23, align 8
  %25 = icmp ne ptr %24, null
  br i1 %25, label %26, label %30

26:                                               ; preds = %22
  %27 = load ptr, ptr %2, align 8
  %28 = load ptr, ptr %27, align 8
  call void @free(ptr noundef %28) #10
  %29 = load ptr, ptr %2, align 8
  store ptr null, ptr %29, align 8
  br label %31

30:                                               ; preds = %22
  br label %31

31:                                               ; preds = %30, %26
  br label %32

32:                                               ; preds = %31, %6
  ret void
}

; Function Attrs: nounwind uwtable
define void @Unr_ManFree(ptr noundef %0) #0 {
  %2 = alloca ptr, align 8
  store ptr %0, ptr %2, align 8
  %3 = load ptr, ptr %2, align 8
  %4 = getelementptr inbounds %struct.Unr_Man_t_, ptr %3, i32 0, i32 1
  %5 = load ptr, ptr %4, align 8
  call void @Gia_ManStop(ptr noundef %5)
  %6 = load ptr, ptr %2, align 8
  %7 = getelementptr inbounds %struct.Unr_Man_t_, ptr %6, i32 0, i32 3
  call void @Vec_IntFreeP(ptr noundef %7)
  %8 = load ptr, ptr %2, align 8
  %9 = getelementptr inbounds %struct.Unr_Man_t_, ptr %8, i32 0, i32 4
  call void @Vec_IntFreeP(ptr noundef %9)
  %10 = load ptr, ptr %2, align 8
  %11 = getelementptr inbounds %struct.Unr_Man_t_, ptr %10, i32 0, i32 5
  call void @Vec_IntFreeP(ptr noundef %11)
  %12 = load ptr, ptr %2, align 8
  %13 = getelementptr inbounds %struct.Unr_Man_t_, ptr %12, i32 0, i32 6
  call void @Vec_IntFreeP(ptr noundef %13)
  %14 = load ptr, ptr %2, align 8
  %15 = getelementptr inbounds %struct.Unr_Man_t_, ptr %14, i32 0, i32 9
  call void @Vec_IntFreeP(ptr noundef %15)
  %16 = load ptr, ptr %2, align 8
  %17 = getelementptr inbounds %struct.Unr_Man_t_, ptr %16, i32 0, i32 10
  call void @Vec_IntFreeP(ptr noundef %17)
  %18 = load ptr, ptr %2, align 8
  %19 = getelementptr inbounds %struct.Unr_Man_t_, ptr %18, i32 0, i32 11
  call void @Vec_IntFreeP(ptr noundef %19)
  %20 = load ptr, ptr %2, align 8
  %21 = getelementptr inbounds %struct.Unr_Man_t_, ptr %20, i32 0, i32 12
  call void @Vec_IntFreeP(ptr noundef %21)
  %22 = load ptr, ptr %2, align 8
  %23 = getelementptr inbounds %struct.Unr_Man_t_, ptr %22, i32 0, i32 7
  %24 = load ptr, ptr %23, align 8
  %25 = icmp ne ptr %24, null
  br i1 %25, label %26, label %32

26:                                               ; preds = %1
  %27 = load ptr, ptr %2, align 8
  %28 = getelementptr inbounds %struct.Unr_Man_t_, ptr %27, i32 0, i32 7
  %29 = load ptr, ptr %28, align 8
  call void @free(ptr noundef %29) #10
  %30 = load ptr, ptr %2, align 8
  %31 = getelementptr inbounds %struct.Unr_Man_t_, ptr %30, i32 0, i32 7
  store ptr null, ptr %31, align 8
  br label %33

32:                                               ; preds = %1
  br label %33

33:                                               ; preds = %32, %26
  %34 = load ptr, ptr %2, align 8
  %35 = icmp ne ptr %34, null
  br i1 %35, label %36, label %38

36:                                               ; preds = %33
  %37 = load ptr, ptr %2, align 8
  call void @free(ptr noundef %37) #10
  store ptr null, ptr %2, align 8
  br label %39

38:                                               ; preds = %33
  br label %39

39:                                               ; preds = %38, %36
  ret void
}