; Function Attrs: nounwind uwtable
define void @Unr_ManFree(ptr noundef captures(none) %0) local_unnamed_addr #0 {
  %2 = getelementptr inbounds nuw i8, ptr %0, i64 8
  %3 = load ptr, ptr %2, align 8
  tail call void @Gia_ManStop(ptr noundef %3) #18
  %4 = getelementptr inbounds nuw i8, ptr %0, i64 24
  %5 = load ptr, ptr %4, align 8
  %6 = icmp eq ptr %5, null
  br i1 %6, label %Vec_IntFreeP.exit, label %7

7:                                                ; preds = %1
  %8 = getelementptr inbounds nuw i8, ptr %5, i64 8
  %9 = load ptr, ptr %8, align 8
  %.not.i = icmp eq ptr %9, null
  br i1 %.not.i, label %.thread.i, label %10

10:                                               ; preds = %7
  tail call void @free(ptr noundef nonnull %9) #18
  %11 = load ptr, ptr %4, align 8
  %12 = getelementptr inbounds nuw i8, ptr %11, i64 8
  store ptr null, ptr %12, align 8
  %.pre.i = load ptr, ptr %4, align 8
  %.not9.i = icmp eq ptr %.pre.i, null
  br i1 %.not9.i, label %Vec_IntFreeP.exit, label %.thread.i

.thread.i:                                        ; preds = %10, %7
  %13 = phi ptr [ %.pre.i, %10 ], [ %5, %7 ]
  tail call void @free(ptr noundef nonnull %13) #18
  store ptr null, ptr %4, align 8
  br label %Vec_IntFreeP.exit

Vec_IntFreeP.exit:                                ; preds = %1, %10, %.thread.i
  %14 = getelementptr inbounds nuw i8, ptr %0, i64 32
  %15 = load ptr, ptr %14, align 8
  %16 = icmp eq ptr %15, null
  br i1 %16, label %Vec_IntFreeP.exit20, label %17

17:                                               ; preds = %Vec_IntFreeP.exit
  %18 = getelementptr inbounds nuw i8, ptr %15, i64 8
  %19 = load ptr, ptr %18, align 8
  %.not.i16 = icmp eq ptr %19, null
  br i1 %.not.i16, label %.thread.i19, label %20

20:                                               ; preds = %17
  tail call void @free(ptr noundef nonnull %19) #18
  %21 = load ptr, ptr %14, align 8
  %22 = getelementptr inbounds nuw i8, ptr %21, i64 8
  store ptr null, ptr %22, align 8
  %.pre.i17 = load ptr, ptr %14, align 8
  %.not9.i18 = icmp eq ptr %.pre.i17, null
  br i1 %.not9.i18, label %Vec_IntFreeP.exit20, label %.thread.i19

.thread.i19:                                      ; preds = %20, %17
  %23 = phi ptr [ %.pre.i17, %20 ], [ %15, %17 ]
  tail call void @free(ptr noundef nonnull %23) #18
  store ptr null, ptr %14, align 8
  br label %Vec_IntFreeP.exit20

Vec_IntFreeP.exit20:                              ; preds = %Vec_IntFreeP.exit, %20, %.thread.i19
  %24 = getelementptr inbounds nuw i8, ptr %0, i64 40
  %25 = load ptr, ptr %24, align 8
  %26 = icmp eq ptr %25, null
  br i1 %26, label %Vec_IntFreeP.exit25, label %27

27:                                               ; preds = %Vec_IntFreeP.exit20
  %28 = getelementptr inbounds nuw i8, ptr %25, i64 8
  %29 = load ptr, ptr %28, align 8
  %.not.i21 = icmp eq ptr %29, null
  br i1 %.not.i21, label %.thread.i24, label %30

30:                                               ; preds = %27
  tail call void @free(ptr noundef nonnull %29) #18
  %31 = load ptr, ptr %24, align 8
  %32 = getelementptr inbounds nuw i8, ptr %31, i64 8
  store ptr null, ptr %32, align 8
  %.pre.i22 = load ptr, ptr %24, align 8
  %.not9.i23 = icmp eq ptr %.pre.i22, null
  br i1 %.not9.i23, label %Vec_IntFreeP.exit25, label %.thread.i24

.thread.i24:                                      ; preds = %30, %27
  %33 = phi ptr [ %.pre.i22, %30 ], [ %25, %27 ]
  tail call void @free(ptr noundef nonnull %33) #18
  store ptr null, ptr %24, align 8
  br label %Vec_IntFreeP.exit25

Vec_IntFreeP.exit25:                              ; preds = %Vec_IntFreeP.exit20, %30, %.thread.i24
  %34 = getelementptr inbounds nuw i8, ptr %0, i64 48
  %35 = load ptr, ptr %34, align 8
  %36 = icmp eq ptr %35, null
  br i1 %36, label %Vec_IntFreeP.exit30, label %37

37:                                               ; preds = %Vec_IntFreeP.exit25
  %38 = getelementptr inbounds nuw i8, ptr %35, i64 8
  %39 = load ptr, ptr %38, align 8
  %.not.i26 = icmp eq ptr %39, null
  br i1 %.not.i26, label %.thread.i29, label %40

40:                                               ; preds = %37
  tail call void @free(ptr noundef nonnull %39) #18
  %41 = load ptr, ptr %34, align 8
  %42 = getelementptr inbounds nuw i8, ptr %41, i64 8
  store ptr null, ptr %42, align 8
  %.pre.i27 = load ptr, ptr %34, align 8
  %.not9.i28 = icmp eq ptr %.pre.i27, null
  br i1 %.not9.i28, label %Vec_IntFreeP.exit30, label %.thread.i29

.thread.i29:                                      ; preds = %40, %37
  %43 = phi ptr [ %.pre.i27, %40 ], [ %35, %37 ]
  tail call void @free(ptr noundef nonnull %43) #18
  store ptr null, ptr %34, align 8
  br label %Vec_IntFreeP.exit30

Vec_IntFreeP.exit30:                              ; preds = %Vec_IntFreeP.exit25, %40, %.thread.i29
  %44 = getelementptr inbounds nuw i8, ptr %0, i64 72
  %45 = load ptr, ptr %44, align 8
  %46 = icmp eq ptr %45, null
  br i1 %46, label %Vec_IntFreeP.exit35, label %47

47:                                               ; preds = %Vec_IntFreeP.exit30
  %48 = getelementptr inbounds nuw i8, ptr %45, i64 8
  %49 = load ptr, ptr %48, align 8
  %.not.i31 = icmp eq ptr %49, null
  br i1 %.not.i31, label %.thread.i34, label %50

50:                                               ; preds = %47
  tail call void @free(ptr noundef nonnull %49) #18
  %51 = load ptr, ptr %44, align 8
  %52 = getelementptr inbounds nuw i8, ptr %51, i64 8
  store ptr null, ptr %52, align 8
  %.pre.i32 = load ptr, ptr %44, align 8
  %.not9.i33 = icmp eq ptr %.pre.i32, null
  br i1 %.not9.i33, label %Vec_IntFreeP.exit35, label %.thread.i34

.thread.i34:                                      ; preds = %50, %47
  %53 = phi ptr [ %.pre.i32, %50 ], [ %45, %47 ]
  tail call void @free(ptr noundef nonnull %53) #18
  store ptr null, ptr %44, align 8
  br label %Vec_IntFreeP.exit35

Vec_IntFreeP.exit35:                              ; preds = %Vec_IntFreeP.exit30, %50, %.thread.i34
  %54 = getelementptr inbounds nuw i8, ptr %0, i64 80
  %55 = load ptr, ptr %54, align 8
  %56 = icmp eq ptr %55, null
  br i1 %56, label %Vec_IntFreeP.exit40, label %57

57:                                               ; preds = %Vec_IntFreeP.exit35
  %58 = getelementptr inbounds nuw i8, ptr %55, i64 8
  %59 = load ptr, ptr %58, align 8
  %.not.i36 = icmp eq ptr %59, null
  br i1 %.not.i36, label %.thread.i39, label %60

60:                                               ; preds = %57
  tail call void @free(ptr noundef nonnull %59) #18
  %61 = load ptr, ptr %54, align 8
  %62 = getelementptr inbounds nuw i8, ptr %61, i64 8
  store ptr null, ptr %62, align 8
  %.pre.i37 = load ptr, ptr %54, align 8
  %.not9.i38 = icmp eq ptr %.pre.i37, null
  br i1 %.not9.i38, label %Vec_IntFreeP.exit40, label %.thread.i39

.thread.i39:                                      ; preds = %60, %57
  %63 = phi ptr [ %.pre.i37, %60 ], [ %55, %57 ]
  tail call void @free(ptr noundef nonnull %63) #18
  store ptr null, ptr %54, align 8
  br label %Vec_IntFreeP.exit40

Vec_IntFreeP.exit40:                              ; preds = %Vec_IntFreeP.exit35, %60, %.thread.i39
  %64 = getelementptr inbounds nuw i8, ptr %0, i64 88
  %65 = load ptr, ptr %64, align 8
  %66 = icmp eq ptr %65, null
  br i1 %66, label %Vec_IntFreeP.exit45, label %67

67:                                               ; preds = %Vec_IntFreeP.exit40
  %68 = getelementptr inbounds nuw i8, ptr %65, i64 8
  %69 = load ptr, ptr %68, align 8
  %.not.i41 = icmp eq ptr %69, null
  br i1 %.not.i41, label %.thread.i44, label %70

70:                                               ; preds = %67
  tail call void @free(ptr noundef nonnull %69) #18
  %71 = load ptr, ptr %64, align 8
  %72 = getelementptr inbounds nuw i8, ptr %71, i64 8
  store ptr null, ptr %72, align 8
  %.pre.i42 = load ptr, ptr %64, align 8
  %.not9.i43 = icmp eq ptr %.pre.i42, null
  br i1 %.not9.i43, label %Vec_IntFreeP.exit45, label %.thread.i44

.thread.i44:                                      ; preds = %70, %67
  %73 = phi ptr [ %.pre.i42, %70 ], [ %65, %67 ]
  tail call void @free(ptr noundef nonnull %73) #18
  store ptr null, ptr %64, align 8
  br label %Vec_IntFreeP.exit45

Vec_IntFreeP.exit45:                              ; preds = %Vec_IntFreeP.exit40, %70, %.thread.i44
  %74 = getelementptr inbounds nuw i8, ptr %0, i64 96
  %75 = load ptr, ptr %74, align 8
  %76 = icmp eq ptr %75, null
  br i1 %76, label %Vec_IntFreeP.exit50, label %77

77:                                               ; preds = %Vec_IntFreeP.exit45
  %78 = getelementptr inbounds nuw i8, ptr %75, i64 8
  %79 = load ptr, ptr %78, align 8
  %.not.i46 = icmp eq ptr %79, null
  br i1 %.not.i46, label %.thread.i49, label %80

80:                                               ; preds = %77
  tail call void @free(ptr noundef nonnull %79) #18
  %81 = load ptr, ptr %74, align 8
  %82 = getelementptr inbounds nuw i8, ptr %81, i64 8
  store ptr null, ptr %82, align 8
  %.pre.i47 = load ptr, ptr %74, align 8
  %.not9.i48 = icmp eq ptr %.pre.i47, null
  br i1 %.not9.i48, label %Vec_IntFreeP.exit50, label %.thread.i49

.thread.i49:                                      ; preds = %80, %77
  %83 = phi ptr [ %.pre.i47, %80 ], [ %75, %77 ]
  tail call void @free(ptr noundef nonnull %83) #18
  store ptr null, ptr %74, align 8
  br label %Vec_IntFreeP.exit50

Vec_IntFreeP.exit50:                              ; preds = %Vec_IntFreeP.exit45, %80, %.thread.i49
  %84 = getelementptr inbounds nuw i8, ptr %0, i64 56
  %85 = load ptr, ptr %84, align 8
  %.not = icmp eq ptr %85, null
  br i1 %.not, label %87, label %86

86:                                               ; preds = %Vec_IntFreeP.exit50
  tail call void @free(ptr noundef nonnull %85) #18
  br label %87

87:                                               ; preds = %Vec_IntFreeP.exit50, %86
  tail call void @free(ptr noundef nonnull %0) #18
  ret void
}